; Function Attrs: mustprogress nounwind uwtable
define dso_local void @_ZNK5clang7CodeGen15CodeGenFunction12InsertHelperEPN4llvm11InstructionERKNS2_5TwineENS2_21ilist_iterator_w_bitsINS2_12ilist_detail12node_optionsIS3_Lb0ELb0EvLb1ENS2_10BasicBlockEEELb0ELb0EEE(ptr noundef nonnull align 8 dereferenceable(6488) %0, ptr noundef %1, ptr nocapture noundef nonnull readnone align 8 dereferenceable(34) %2, ptr nocapture readnone %3, i64 %4) local_unnamed_addr #0 align 2 {
  %6 = getelementptr inbounds nuw i8, ptr %0, i64 168
  tail call void @_ZNK5clang7CodeGen13LoopInfoStack12InsertHelperEPN4llvm11InstructionE(ptr noundef nonnull align 8 dereferenceable(112) %6, ptr noundef %1) #21
  %7 = getelementptr inbounds nuw i8, ptr %0, i64 2104
  %8 = load i8, ptr %7, align 8
  %9 = trunc i8 %8 to i1
  br i1 %9, label %10, label %11

10:                                               ; preds = %5
  tail call void @_ZN4llvm11Instruction21setNoSanitizeMetadataEv(ptr noundef nonnull align 8 dereferenceable(72) %1) #21
  br label %11

11:                                               ; preds = %10, %5
  ret void
}